; ModuleID = '51/1073.c'
source_filename = "51/1073.c"
target datalayout = "e-m:e-p270:32:32-p271:32:32-p272:64:64-i64:64-f80:128-n8:16:32:64-S128"
target triple = "x86_64-pc-linux-gnu"

@.str = private unnamed_addr constant [3 x i8] c"%d\00", align 1
@.str.1 = private unnamed_addr constant [3 x i8] c"%s\00", align 1
@.str.2 = private unnamed_addr constant [3 x i8] c"NO\00", align 1
@.str.3 = private unnamed_addr constant [4 x i8] c"%d\0A\00", align 1
@.str.4 = private unnamed_addr constant [4 x i8] c"%s\0A\00", align 1

; Function Attrs: noinline nounwind uwtable
define dso_local i32 @main() #0 {
  %1 = alloca i32, align 4
  %2 = alloca [502 x i8], align 16
  %3 = alloca [502 x [7 x i8]], align 16
  %4 = alloca i32, align 4
  %5 = alloca i32, align 4
  %6 = alloca [502 x i32], align 16
  %7 = alloca i32, align 4
  %8 = alloca i32, align 4
  %9 = alloca i32, align 4
  %10 = alloca i32, align 4
  %11 = alloca i32, align 4
  %12 = alloca i32, align 4
  %13 = alloca i32, align 4
  store i32 0, i32* %1, align 4
  store i32 0, i32* %7, align 4
  %14 = getelementptr inbounds [502 x i32], [502 x i32]* %6, i64 0, i64 0
  %15 = bitcast i32* %14 to i8*
  call void @llvm.memset.p0i8.i64(i8* align 16 %15, i8 0, i64 2008, i1 false)
  %16 = call i32 (i8*, ...) @__isoc99_scanf(i8* getelementptr inbounds ([3 x i8], [3 x i8]* @.str, i64 0, i64 0), i32* %5)
  %17 = call i32 (i8*, ...) @__isoc99_scanf(i8* getelementptr inbounds ([3 x i8], [3 x i8]* @.str.1, i64 0, i64 0), [502 x i8]* %2)
  %18 = getelementptr inbounds [502 x i8], [502 x i8]* %2, i64 0, i64 0
  %19 = call i64 @strlen(i8* %18) #4
  %20 = trunc i64 %19 to i32
  store i32 %20, i32* %4, align 4
  store i32 0, i32* %8, align 4
  br label %21

21:                                               ; preds = %56, %0
  %22 = load i32, i32* %8, align 4
  %23 = load i32, i32* %4, align 4
  %24 = load i32, i32* %5, align 4
  %25 = sub nsw i32 %23, %24
  %26 = add nsw i32 %25, 1
  %27 = icmp slt i32 %22, %26
  br i1 %27, label %28, label %59

28:                                               ; preds = %21
  store i32 0, i32* %9, align 4
  br label %29

29:                                               ; preds = %46, %28
  %30 = load i32, i32* %9, align 4
  %31 = load i32, i32* %5, align 4
  %32 = icmp slt i32 %30, %31
  br i1 %32, label %33, label %49

33:                                               ; preds = %29
  %34 = load i32, i32* %8, align 4
  %35 = load i32, i32* %9, align 4
  %36 = add nsw i32 %34, %35
  %37 = sext i32 %36 to i64
  %38 = getelementptr inbounds [502 x i8], [502 x i8]* %2, i64 0, i64 %37
  %39 = load i8, i8* %38, align 1
  %40 = load i32, i32* %8, align 4
  %41 = sext i32 %40 to i64
  %42 = getelementptr inbounds [502 x [7 x i8]], [502 x [7 x i8]]* %3, i64 0, i64 %41
  %43 = load i32, i32* %9, align 4
  %44 = sext i32 %43 to i64
  %45 = getelementptr inbounds [7 x i8], [7 x i8]* %42, i64 0, i64 %44
  store i8 %39, i8* %45, align 1
  br label %46

46:                                               ; preds = %33
  %47 = load i32, i32* %9, align 4
  %48 = add nsw i32 %47, 1
  store i32 %48, i32* %9, align 4
  br label %29

49:                                               ; preds = %29
  %50 = load i32, i32* %8, align 4
  %51 = sext i32 %50 to i64
  %52 = getelementptr inbounds [502 x [7 x i8]], [502 x [7 x i8]]* %3, i64 0, i64 %51
  %53 = load i32, i32* %5, align 4
  %54 = sext i32 %53 to i64
  %55 = getelementptr inbounds [7 x i8], [7 x i8]* %52, i64 0, i64 %54
  store i8 0, i8* %55, align 1
  br label %56

56:                                               ; preds = %49
  %57 = load i32, i32* %8, align 4
  %58 = add nsw i32 %57, 1
  store i32 %58, i32* %8, align 4
  br label %21

59:                                               ; preds = %21
  store i32 0, i32* %10, align 4
  br label %60

60:                                               ; preds = %98, %59
  %61 = load i32, i32* %10, align 4
  %62 = load i32, i32* %4, align 4
  %63 = load i32, i32* %5, align 4
  %64 = sub nsw i32 %62, %63
  %65 = icmp slt i32 %61, %64
  br i1 %65, label %66, label %101

66:                                               ; preds = %60
  %67 = load i32, i32* %10, align 4
  %68 = add nsw i32 %67, 1
  store i32 %68, i32* %11, align 4
  br label %69

69:                                               ; preds = %94, %66
  %70 = load i32, i32* %11, align 4
  %71 = load i32, i32* %4, align 4
  %72 = load i32, i32* %5, align 4
  %73 = sub nsw i32 %71, %72
  %74 = add nsw i32 %73, 1
  %75 = icmp slt i32 %70, %74
  br i1 %75, label %76, label %97

76:                                               ; preds = %69
  %77 = load i32, i32* %10, align 4
  %78 = sext i32 %77 to i64
  %79 = getelementptr inbounds [502 x [7 x i8]], [502 x [7 x i8]]* %3, i64 0, i64 %78
  %80 = getelementptr inbounds [7 x i8], [7 x i8]* %79, i64 0, i64 0
  %81 = load i32, i32* %11, align 4
  %82 = sext i32 %81 to i64
  %83 = getelementptr inbounds [502 x [7 x i8]], [502 x [7 x i8]]* %3, i64 0, i64 %82
  %84 = getelementptr inbounds [7 x i8], [7 x i8]* %83, i64 0, i64 0
  %85 = call i32 @strcmp(i8* %80, i8* %84) #4
  %86 = icmp eq i32 %85, 0
  br i1 %86, label %87, label %93

87:                                               ; preds = %76
  %88 = load i32, i32* %10, align 4
  %89 = sext i32 %88 to i64
  %90 = getelementptr inbounds [502 x i32], [502 x i32]* %6, i64 0, i64 %89
  %91 = load i32, i32* %90, align 4
  %92 = add nsw i32 %91, 1
  store i32 %92, i32* %90, align 4
  br label %93

93:                                               ; preds = %87, %76
  br label %94

94:                                               ; preds = %93
  %95 = load i32, i32* %11, align 4
  %96 = add nsw i32 %95, 1
  store i32 %96, i32* %11, align 4
  br label %69

97:                                               ; preds = %69
  br label %98

98:                                               ; preds = %97
  %99 = load i32, i32* %10, align 4
  %100 = add nsw i32 %99, 1
  store i32 %100, i32* %10, align 4
  br label %60

101:                                              ; preds = %60
  store i32 0, i32* %12, align 4
  br label %102

102:                                              ; preds = %122, %101
  %103 = load i32, i32* %12, align 4
  %104 = load i32, i32* %4, align 4
  %105 = load i32, i32* %5, align 4
  %106 = sub nsw i32 %104, %105
  %107 = add nsw i32 %106, 1
  %108 = icmp slt i32 %103, %107
  br i1 %108, label %109, label %125

109:                                              ; preds = %102
  %110 = load i32, i32* %12, align 4
  %111 = sext i32 %110 to i64
  %112 = getelementptr inbounds [502 x i32], [502 x i32]* %6, i64 0, i64 %111
  %113 = load i32, i32* %112, align 4
  %114 = load i32, i32* %7, align 4
  %115 = icmp sgt i32 %113, %114
  br i1 %115, label %116, label %121

116:                                              ; preds = %109
  %117 = load i32, i32* %12, align 4
  %118 = sext i32 %117 to i64
  %119 = getelementptr inbounds [502 x i32], [502 x i32]* %6, i64 0, i64 %118
  %120 = load i32, i32* %119, align 4
  store i32 %120, i32* %7, align 4
  br label %121

121:                                              ; preds = %116, %109
  br label %122

122:                                              ; preds = %121
  %123 = load i32, i32* %12, align 4
  %124 = add nsw i32 %123, 1
  store i32 %124, i32* %12, align 4
  br label %102

125:                                              ; preds = %102
  %126 = load i32, i32* %7, align 4
  %127 = icmp eq i32 0, %126
  br i1 %127, label %128, label %130

128:                                              ; preds = %125
  %129 = call i32 (i8*, ...) @printf(i8* getelementptr inbounds ([3 x i8], [3 x i8]* @.str.2, i64 0, i64 0))
  store i32 0, i32* %1, align 4
  br label %159

130:                                              ; preds = %125
  %131 = load i32, i32* %7, align 4
  %132 = add nsw i32 %131, 1
  %133 = call i32 (i8*, ...) @printf(i8* getelementptr inbounds ([4 x i8], [4 x i8]* @.str.3, i64 0, i64 0), i32 %132)
  store i32 0, i32* %13, align 4
  br label %134

134:                                              ; preds = %155, %130
  %135 = load i32, i32* %13, align 4
  %136 = load i32, i32* %4, align 4
  %137 = load i32, i32* %5, align 4
  %138 = sub nsw i32 %136, %137
  %139 = add nsw i32 %138, 1
  %140 = icmp slt i32 %135, %139
  br i1 %140, label %141, label %158

141:                                              ; preds = %134
  %142 = load i32, i32* %13, align 4
  %143 = sext i32 %142 to i64
  %144 = getelementptr inbounds [502 x i32], [502 x i32]* %6, i64 0, i64 %143
  %145 = load i32, i32* %144, align 4
  %146 = load i32, i32* %7, align 4
  %147 = icmp eq i32 %145, %146
  br i1 %147, label %148, label %154

148:                                              ; preds = %141
  %149 = load i32, i32* %13, align 4
  %150 = sext i32 %149 to i64
  %151 = getelementptr inbounds [502 x [7 x i8]], [502 x [7 x i8]]* %3, i64 0, i64 %150
  %152 = getelementptr inbounds [7 x i8], [7 x i8]* %151, i64 0, i64 0
  %153 = call i32 (i8*, ...) @printf(i8* getelementptr inbounds ([4 x i8], [4 x i8]* @.str.4, i64 0, i64 0), i8* %152)
  br label %154

154:                                              ; preds = %148, %141
  br label %155

155:                                              ; preds = %154
  %156 = load i32, i32* %13, align 4
  %157 = add nsw i32 %156, 1
  store i32 %157, i32* %13, align 4
  br label %134

158:                                              ; preds = %134
  store i32 0, i32* %1, align 4
  br label %159

159:                                              ; preds = %158, %128
  %160 = load i32, i32* %1, align 4
  ret i32 %160
}

; Function Attrs: argmemonly nounwind willreturn
declare void @llvm.memset.p0i8.i64(i8* nocapture writeonly, i8, i64, i1 immarg) #1

declare dso_local i32 @__isoc99_scanf(i8*, ...) #2

; Function Attrs: nounwind readonly
declare dso_local i64 @strlen(i8*) #3

; Function Attrs: nounwind readonly
declare dso_local i32 @strcmp(i8*, i8*) #3

declare dso_local i32 @printf(i8*, ...) #2


!llvm.module.flags = !{!0}
!llvm.ident = !{!1}

!0 = !{i32 1, !"wchar_size", i32 4}
!1 = !{!"clang version 10.0.0-4ubuntu1 "}
